target datalayout = "e-m:e-p270:32:32-p271:32:32-p272:64:64-i64:64-i128:128-f80:128-n8:16:32:64-S128"
target triple = "x86_64-unknown-linux-gnu"

%"class.std::__cxx11::basic_string" = type { %"struct.std::__cxx11::basic_string<char>::_Alloc_hider", i64, %union.anon }
%"struct.std::__cxx11::basic_string<char>::_Alloc_hider" = type { ptr }
%union.anon = type { i64, [8 x i8] }
%class.anon.22 = type { i8 }
%class.anon.75 = type { %class.anon.22, ptr }
%"class.std::_Bind" = type { %class.anon.75, %"class.std::tuple.134" }
%"class.std::tuple.134" = type { %"struct.std::_Tuple_impl.135" }
%"struct.std::_Tuple_impl.135" = type { %"struct.std::_Head_base.136" }
%"struct.std::_Head_base.136" = type { %"class.std::__cxx11::basic_string" }

; Function Attrs: mustprogress uwtable
define linkonce_odr dso_local void @_ZNSt10_Head_baseILm0ENSt7__cxx1112basic_stringIcSt11char_traitsIcESaIcEEELb0EEC2ERKS6_(ptr noundef nonnull align 8 dereferenceable(32) %this, ptr noundef nonnull align 8 dereferenceable(32) %0) unnamed_addr #1 comdat align 2 {
entry:
  %this.addr = alloca ptr, align 8
  %.addr = alloca ptr, align 8
  store ptr %this, ptr %this.addr, align 8
  store ptr %0, ptr %.addr, align 8
  %this1 = load ptr, ptr %this.addr, align 8
  %_M_head_impl = getelementptr inbounds %"struct.std::_Head_base.136", ptr %this1, i32 0, i32 0
  %1 = load ptr, ptr %.addr, align 8
  %_M_head_impl2 = getelementptr inbounds %"struct.std::_Head_base.136", ptr %1, i32 0, i32 0
  call void @_ZNSt7__cxx1112basic_stringIcSt11char_traitsIcESaIcEEC1ERKS4_(ptr noundef nonnull align 8 dereferenceable(32) %_M_head_impl, ptr noundef nonnull align 8 dereferenceable(32) %_M_head_impl2)
  ret void
}

; Function Attrs: mustprogress nounwind uwtable
define linkonce_odr dso_local void @_ZNSt10_Head_baseILm0ENSt7__cxx1112basic_stringIcSt11char_traitsIcESaIcEEELb0EED2Ev(ptr noundef nonnull align 8 dereferenceable(32) %this) unnamed_addr #2 comdat align 2 {
entry:
  %this.addr = alloca ptr, align 8
  store ptr %this, ptr %this.addr, align 8
  %this1 = load ptr, ptr %this.addr, align 8
  %_M_head_impl = getelementptr inbounds %"struct.std::_Head_base.136", ptr %this1, i32 0, i32 0
  call void @_ZNSt7__cxx1112basic_stringIcSt11char_traitsIcESaIcEED1Ev(ptr noundef nonnull align 8 dereferenceable(32) %_M_head_impl) #5
  ret void
}

; Function Attrs: mustprogress uwtable
define linkonce_odr dso_local void @_ZNSt11_Tuple_implILm0EJNSt7__cxx1112basic_stringIcSt11char_traitsIcESaIcEEEEEC2ERKS6_(ptr noundef nonnull align 8 dereferenceable(32) %this, ptr noundef nonnull align 8 dereferenceable(32) %0) unnamed_addr #1 comdat align 2 {
entry:
  %this.addr = alloca ptr, align 8
  %.addr = alloca ptr, align 8
  store ptr %this, ptr %this.addr, align 8
  store ptr %0, ptr %.addr, align 8
  %this1 = load ptr, ptr %this.addr, align 8
  %1 = load ptr, ptr %.addr, align 8
  call void @_ZNSt10_Head_baseILm0ENSt7__cxx1112basic_stringIcSt11char_traitsIcESaIcEEELb0EEC2ERKS6_(ptr noundef nonnull align 8 dereferenceable(32) %this1, ptr noundef nonnull align 8 dereferenceable(32) %1)
  ret void
}

; Function Attrs: mustprogress nounwind uwtable
define linkonce_odr dso_local void @_ZNSt11_Tuple_implILm0EJNSt7__cxx1112basic_stringIcSt11char_traitsIcESaIcEEEEED2Ev(ptr noundef nonnull align 8 dereferenceable(32) %this) unnamed_addr #2 comdat align 2 {
entry:
  %this.addr = alloca ptr, align 8
  store ptr %this, ptr %this.addr, align 8
  %this1 = load ptr, ptr %this.addr, align 8
  call void @_ZNSt10_Head_baseILm0ENSt7__cxx1112basic_stringIcSt11char_traitsIcESaIcEEELb0EED2Ev(ptr noundef nonnull align 8 dereferenceable(32) %this1) #5
  ret void
}

; Function Attrs: mustprogress uwtable
define linkonce_odr dso_local void @_ZNSt5tupleIJNSt7__cxx1112basic_stringIcSt11char_traitsIcESaIcEEEEEC2ERKS6_(ptr noundef nonnull align 8 dereferenceable(32) %this, ptr noundef nonnull align 8 dereferenceable(32) %0) unnamed_addr #1 comdat align 2 {
entry:
  %this.addr = alloca ptr, align 8
  %.addr = alloca ptr, align 8
  store ptr %this, ptr %this.addr, align 8
  store ptr %0, ptr %.addr, align 8
  %this1 = load ptr, ptr %this.addr, align 8
  %1 = load ptr, ptr %.addr, align 8
  call void @_ZNSt11_Tuple_implILm0EJNSt7__cxx1112basic_stringIcSt11char_traitsIcESaIcEEEEEC2ERKS6_(ptr noundef nonnull align 8 dereferenceable(32) %this1, ptr noundef nonnull align 8 dereferenceable(32) %1)
  ret void
}

; Function Attrs: mustprogress nounwind uwtable
define linkonce_odr dso_local void @_ZNSt5tupleIJNSt7__cxx1112basic_stringIcSt11char_traitsIcESaIcEEEEED2Ev(ptr noundef nonnull align 8 dereferenceable(32) %this) unnamed_addr #2 comdat align 2 {
entry:
  %this.addr = alloca ptr, align 8
  store ptr %this, ptr %this.addr, align 8
  %this1 = load ptr, ptr %this.addr, align 8
  call void @_ZNSt11_Tuple_implILm0EJNSt7__cxx1112basic_stringIcSt11char_traitsIcESaIcEEEEED2Ev(ptr noundef nonnull align 8 dereferenceable(32) %this1) #5
  ret void
}

; Function Attrs: mustprogress uwtable
define internal void @"_ZNSt5_BindIFZN4pbrt5parseEPNS0_12ParserTargetESt10unique_ptrINS0_9TokenizerESt14default_deleteIS4_EEE3$_3NSt7__cxx1112basic_stringIcSt11char_traitsIcESaIcEEEEEC2ERKSG_"(ptr noundef nonnull align 8 dereferenceable(48) %this, ptr noundef nonnull align 8 dereferenceable(48) %0) unnamed_addr #1 align 2 {
entry:
  %this.addr = alloca ptr, align 8
  %.addr = alloca ptr, align 8
  store ptr %this, ptr %this.addr, align 8
  store ptr %0, ptr %.addr, align 8
  %this1 = load ptr, ptr %this.addr, align 8
  %_M_f = getelementptr inbounds %"class.std::_Bind", ptr %this1, i32 0, i32 0
  %1 = load ptr, ptr %.addr, align 8
  %_M_f2 = getelementptr inbounds %"class.std::_Bind", ptr %1, i32 0, i32 0
  call void @llvm.memcpy.p0.p0.i64(ptr align 8 %_M_f, ptr align 8 %_M_f2, i64 16, i1 false)
  %_M_bound_args = getelementptr inbounds %"class.std::_Bind", ptr %this1, i32 0, i32 1
  %2 = load ptr, ptr %.addr, align 8
  %_M_bound_args3 = getelementptr inbounds %"class.std::_Bind", ptr %2, i32 0, i32 1
  call void @_ZNSt5tupleIJNSt7__cxx1112basic_stringIcSt11char_traitsIcESaIcEEEEEC2ERKS6_(ptr noundef nonnull align 8 dereferenceable(32) %_M_bound_args, ptr noundef nonnull align 8 dereferenceable(32) %_M_bound_args3)
  ret void
}

; Function Attrs: mustprogress nounwind uwtable
define internal void @"_ZNSt5_BindIFZN4pbrt5parseEPNS0_12ParserTargetESt10unique_ptrINS0_9TokenizerESt14default_deleteIS4_EEE3$_3NSt7__cxx1112basic_stringIcSt11char_traitsIcESaIcEEEEED2Ev"(ptr noundef nonnull align 8 dereferenceable(48) %this) unnamed_addr #2 align 2 {
entry:
  %this.addr = alloca ptr, align 8
  store ptr %this, ptr %this.addr, align 8
  %this1 = load ptr, ptr %this.addr, align 8
  %_M_bound_args = getelementptr inbounds %"class.std::_Bind", ptr %this1, i32 0, i32 1
  call void @_ZNSt5tupleIJNSt7__cxx1112basic_stringIcSt11char_traitsIcESaIcEEEEED2Ev(ptr noundef nonnull align 8 dereferenceable(32) %_M_bound_args) #5
  ret void
}

; Function Attrs: mustprogress uwtable
define internal void @"_ZNSt14_Function_base13_Base_managerISt5_BindIFZN4pbrt5parseEPNS2_12ParserTargetESt10unique_ptrINS2_9TokenizerESt14default_deleteIS6_EEE3$_3NSt7__cxx1112basic_stringIcSt11char_traitsIcESaIcEEEEEE9_M_createIRKSI_EEvRSt9_Any_dataOT_St17integral_constantIbLb0EE"(ptr noundef nonnull align 8 dereferenceable(16) %__dest, ptr noundef nonnull align 8 dereferenceable(48) %__f) #1 align 2 personality ptr @__gxx_personality_v0 {
entry:
  %__dest.addr = alloca ptr, align 8
  %__f.addr = alloca ptr, align 8
  %exn.slot = alloca ptr, align 8
  %ehselector.slot = alloca i32, align 4
  store ptr %__dest, ptr %__dest.addr, align 8
  store ptr %__f, ptr %__f.addr, align 8
  %call = call noalias noundef nonnull ptr @_Znwm(i64 noundef 48) #19
  %0 = load ptr, ptr %__f.addr, align 8
  invoke void @"_ZNSt5_BindIFZN4pbrt5parseEPNS0_12ParserTargetESt10unique_ptrINS0_9TokenizerESt14default_deleteIS4_EEE3$_3NSt7__cxx1112basic_stringIcSt11char_traitsIcESaIcEEEEEC2ERKSG_"(ptr noundef nonnull align 8 dereferenceable(48) %call, ptr noundef nonnull align 8 dereferenceable(48) %0)
          to label %invoke.cont unwind label %lpad

invoke.cont:                                      ; preds = %entry
  %1 = load ptr, ptr %__dest.addr, align 8
  %call1 = call noundef nonnull align 8 dereferenceable(8) ptr @"_ZNSt9_Any_data9_M_accessIPSt5_BindIFZN4pbrt5parseEPNS2_12ParserTargetESt10unique_ptrINS2_9TokenizerESt14default_deleteIS6_EEE3$_3NSt7__cxx1112basic_stringIcSt11char_traitsIcESaIcEEEEEEERT_v"(ptr noundef nonnull align 8 dereferenceable(16) %1) #5
  store ptr %call, ptr %call1, align 8
  ret void

lpad:                                             ; preds = %entry
  %2 = landingpad { ptr, i32 }
          cleanup
  %3 = extractvalue { ptr, i32 } %2, 0
  store ptr %3, ptr %exn.slot, align 8
  %4 = extractvalue { ptr, i32 } %2, 1
  store i32 %4, ptr %ehselector.slot, align 4
  call void @_ZdlPv(ptr noundef %call) #20
  br label %eh.resume

eh.resume:                                        ; preds = %lpad
  %exn = load ptr, ptr %exn.slot, align 8
  %sel = load i32, ptr %ehselector.slot, align 4
  %lpad.val = insertvalue { ptr, i32 } poison, ptr %exn, 0
  %lpad.val2 = insertvalue { ptr, i32 } %lpad.val, i32 %sel, 1
  resume { ptr, i32 } %lpad.val2
}

; Function Attrs: mustprogress nounwind uwtable
define linkonce_odr dso_local noundef ptr @_ZNKSt9_Any_data9_M_accessEv(ptr noundef nonnull align 8 dereferenceable(16) %this) #2 comdat align 2 {
entry:
  %this.addr = alloca ptr, align 8
  store ptr %this, ptr %this.addr, align 8
  %this1 = load ptr, ptr %this.addr, align 8
  %arrayidx = getelementptr inbounds [16 x i8], ptr %this1, i64 0, i64 0
  ret ptr %arrayidx
}

; Function Attrs: mustprogress nounwind uwtable
define internal void @"_ZNSt14_Function_base13_Base_managerISt5_BindIFZN4pbrt5parseEPNS2_12ParserTargetESt10unique_ptrINS2_9TokenizerESt14default_deleteIS6_EEE3$_3NSt7__cxx1112basic_stringIcSt11char_traitsIcESaIcEEEEEE10_M_destroyERSt9_Any_dataSt17integral_constantIbLb0EE"(ptr noundef nonnull align 8 dereferenceable(16) %__victim) #2 align 2 {
entry:
  %__victim.addr = alloca ptr, align 8
  store ptr %__victim, ptr %__victim.addr, align 8
  %0 = load ptr, ptr %__victim.addr, align 8
  %call = call noundef nonnull align 8 dereferenceable(8) ptr @"_ZNSt9_Any_data9_M_accessIPSt5_BindIFZN4pbrt5parseEPNS2_12ParserTargetESt10unique_ptrINS2_9TokenizerESt14default_deleteIS6_EEE3$_3NSt7__cxx1112basic_stringIcSt11char_traitsIcESaIcEEEEEEERT_v"(ptr noundef nonnull align 8 dereferenceable(16) %0) #5
  %1 = load ptr, ptr %call, align 8
  %isnull = icmp eq ptr %1, null
  br i1 %isnull, label %delete.end, label %delete.notnull

delete.notnull:                                   ; preds = %entry
  call void @"_ZNSt5_BindIFZN4pbrt5parseEPNS0_12ParserTargetESt10unique_ptrINS0_9TokenizerESt14default_deleteIS4_EEE3$_3NSt7__cxx1112basic_stringIcSt11char_traitsIcESaIcEEEEED2Ev"(ptr noundef nonnull align 8 dereferenceable(48) %1) #5
  call void @_ZdlPv(ptr noundef %1) #20
  br label %delete.end

delete.end:                                       ; preds = %delete.notnull, %entry
  ret void
}

; Function Attrs: mustprogress uwtable
define internal void @"_ZNSt14_Function_base13_Base_managerISt5_BindIFZN4pbrt5parseEPNS2_12ParserTargetESt10unique_ptrINS2_9TokenizerESt14default_deleteIS6_EEE3$_3NSt7__cxx1112basic_stringIcSt11char_traitsIcESaIcEEEEEE15_M_init_functorIRKSI_EEvRSt9_Any_dataOT_"(ptr noundef nonnull align 8 dereferenceable(16) %__functor, ptr noundef nonnull align 8 dereferenceable(48) %__f) #1 align 2 {
entry:
  %__functor.addr = alloca ptr, align 8
  %__f.addr = alloca ptr, align 8
  store ptr %__functor, ptr %__functor.addr, align 8
  store ptr %__f, ptr %__f.addr, align 8
  %0 = load ptr, ptr %__functor.addr, align 8
  %1 = load ptr, ptr %__f.addr, align 8
  call void @"_ZNSt14_Function_base13_Base_managerISt5_BindIFZN4pbrt5parseEPNS2_12ParserTargetESt10unique_ptrINS2_9TokenizerESt14default_deleteIS6_EEE3$_3NSt7__cxx1112basic_stringIcSt11char_traitsIcESaIcEEEEEE9_M_createIRKSI_EEvRSt9_Any_dataOT_St17integral_constantIbLb0EE"(ptr noundef nonnull align 8 dereferenceable(16) %0, ptr noundef nonnull align 8 dereferenceable(48) %1)
  ret void
}

; Function Attrs: mustprogress nounwind uwtable
define internal noundef nonnull align 8 dereferenceable(8) ptr @"_ZNKSt9_Any_data9_M_accessIPSt5_BindIFZN4pbrt5parseEPNS2_12ParserTargetESt10unique_ptrINS2_9TokenizerESt14default_deleteIS6_EEE3$_3NSt7__cxx1112basic_stringIcSt11char_traitsIcESaIcEEEEEEERKT_v"(ptr noundef nonnull align 8 dereferenceable(16) %this) #2 align 2 {
entry:
  %this.addr = alloca ptr, align 8
  store ptr %this, ptr %this.addr, align 8
  %this1 = load ptr, ptr %this.addr, align 8
  %call = call noundef ptr @_ZNKSt9_Any_data9_M_accessEv(ptr noundef nonnull align 8 dereferenceable(16) %this1) #5
  ret ptr %call
}

; Function Attrs: mustprogress nounwind uwtable
define linkonce_odr dso_local noundef ptr @_ZNSt9_Any_data9_M_accessEv(ptr noundef nonnull align 8 dereferenceable(16) %this) #2 comdat align 2 {
entry:
  %this.addr = alloca ptr, align 8
  store ptr %this, ptr %this.addr, align 8
  %this1 = load ptr, ptr %this.addr, align 8
  %arrayidx = getelementptr inbounds [16 x i8], ptr %this1, i64 0, i64 0
  ret ptr %arrayidx
}

; Function Attrs: mustprogress uwtable
define internal noundef zeroext i1 @"_ZNSt14_Function_base13_Base_managerISt5_BindIFZN4pbrt5parseEPNS2_12ParserTargetESt10unique_ptrINS2_9TokenizerESt14default_deleteIS6_EEE3$_3NSt7__cxx1112basic_stringIcSt11char_traitsIcESaIcEEEEEE10_M_managerERSt9_Any_dataRKSK_St18_Manager_operation"(ptr noundef nonnull align 8 dereferenceable(16) %__dest, ptr noundef nonnull align 8 dereferenceable(16) %__source, i32 noundef %__op) #1 align 2 {
entry:
  %__dest.addr = alloca ptr, align 8
  %__source.addr = alloca ptr, align 8
  %__op.addr = alloca i32, align 4
  store ptr %__dest, ptr %__dest.addr, align 8
  store ptr %__source, ptr %__source.addr, align 8
  store i32 %__op, ptr %__op.addr, align 4
  %0 = load i32, ptr %__op.addr, align 4
  switch i32 %0, label %sw.epilog [
    i32 0, label %sw.bb
    i32 1, label %sw.bb1
    i32 2, label %sw.bb4
    i32 3, label %sw.bb6
  ]

sw.bb:                                            ; preds = %entry
  %1 = load ptr, ptr %__dest.addr, align 8
  %call = call noundef nonnull align 8 dereferenceable(8) ptr @_ZNSt9_Any_data9_M_accessIPKSt9type_infoEERT_v(ptr noundef nonnull align 8 dereferenceable(16) %1) #5
  store ptr @"_ZTISt5_BindIFZN4pbrt5parseEPNS0_12ParserTargetESt10unique_ptrINS0_9TokenizerESt14default_deleteIS4_EEE3$_3NSt7__cxx1112basic_stringIcSt11char_traitsIcESaIcEEEEE", ptr %call, align 8
  br label %sw.epilog

sw.bb1:                                           ; preds = %entry
  %2 = load ptr, ptr %__source.addr, align 8
  %call2 = call noundef ptr @"_ZNSt14_Function_base13_Base_managerISt5_BindIFZN4pbrt5parseEPNS2_12ParserTargetESt10unique_ptrINS2_9TokenizerESt14default_deleteIS6_EEE3$_3NSt7__cxx1112basic_stringIcSt11char_traitsIcESaIcEEEEEE14_M_get_pointerERKSt9_Any_data"(ptr noundef nonnull align 8 dereferenceable(16) %2) #5
  %3 = load ptr, ptr %__dest.addr, align 8
  %call3 = call noundef nonnull align 8 dereferenceable(8) ptr @"_ZNSt9_Any_data9_M_accessIPSt5_BindIFZN4pbrt5parseEPNS2_12ParserTargetESt10unique_ptrINS2_9TokenizerESt14default_deleteIS6_EEE3$_3NSt7__cxx1112basic_stringIcSt11char_traitsIcESaIcEEEEEEERT_v"(ptr noundef nonnull align 8 dereferenceable(16) %3) #5
  store ptr %call2, ptr %call3, align 8
  br label %sw.epilog

sw.bb4:                                           ; preds = %entry
  %4 = load ptr, ptr %__dest.addr, align 8
  %5 = load ptr, ptr %__source.addr, align 8
  %call5 = call noundef ptr @"_ZNSt14_Function_base13_Base_managerISt5_BindIFZN4pbrt5parseEPNS2_12ParserTargetESt10unique_ptrINS2_9TokenizerESt14default_deleteIS6_EEE3$_3NSt7__cxx1112basic_stringIcSt11char_traitsIcESaIcEEEEEE14_M_get_pointerERKSt9_Any_data"(ptr noundef nonnull align 8 dereferenceable(16) %5) #5
  call void @"_ZNSt14_Function_base13_Base_managerISt5_BindIFZN4pbrt5parseEPNS2_12ParserTargetESt10unique_ptrINS2_9TokenizerESt14default_deleteIS6_EEE3$_3NSt7__cxx1112basic_stringIcSt11char_traitsIcESaIcEEEEEE15_M_init_functorIRKSI_EEvRSt9_Any_dataOT_"(ptr noundef nonnull align 8 dereferenceable(16) %4, ptr noundef nonnull align 8 dereferenceable(48) %call5)
  br label %sw.epilog

sw.bb6:                                           ; preds = %entry
  %6 = load ptr, ptr %__dest.addr, align 8
  call void @"_ZNSt14_Function_base13_Base_managerISt5_BindIFZN4pbrt5parseEPNS2_12ParserTargetESt10unique_ptrINS2_9TokenizerESt14default_deleteIS6_EEE3$_3NSt7__cxx1112basic_stringIcSt11char_traitsIcESaIcEEEEEE10_M_destroyERSt9_Any_dataSt17integral_constantIbLb0EE"(ptr noundef nonnull align 8 dereferenceable(16) %6)
  br label %sw.epilog

sw.epilog:                                        ; preds = %sw.bb6, %sw.bb4, %sw.bb1, %sw.bb, %entry
  ret i1 false
}

; Function Attrs: mustprogress nounwind uwtable
define internal noundef nonnull align 8 dereferenceable(8) ptr @"_ZNSt9_Any_data9_M_accessIPSt5_BindIFZN4pbrt5parseEPNS2_12ParserTargetESt10unique_ptrINS2_9TokenizerESt14default_deleteIS6_EEE3$_3NSt7__cxx1112basic_stringIcSt11char_traitsIcESaIcEEEEEEERT_v"(ptr noundef nonnull align 8 dereferenceable(16) %this) #2 align 2 {
entry:
  %this.addr = alloca ptr, align 8
  store ptr %this, ptr %this.addr, align 8
  %this1 = load ptr, ptr %this.addr, align 8
  %call = call noundef ptr @_ZNSt9_Any_data9_M_accessEv(ptr noundef nonnull align 8 dereferenceable(16) %this1) #5
  ret ptr %call
}

; Function Attrs: mustprogress nounwind uwtable
define internal noundef ptr @"_ZNSt14_Function_base13_Base_managerISt5_BindIFZN4pbrt5parseEPNS2_12ParserTargetESt10unique_ptrINS2_9TokenizerESt14default_deleteIS6_EEE3$_3NSt7__cxx1112basic_stringIcSt11char_traitsIcESaIcEEEEEE14_M_get_pointerERKSt9_Any_data"(ptr noundef nonnull align 8 dereferenceable(16) %__source) #2 align 2 {
entry:
  %__source.addr = alloca ptr, align 8
  store ptr %__source, ptr %__source.addr, align 8
  %0 = load ptr, ptr %__source.addr, align 8
  %call = call noundef nonnull align 8 dereferenceable(8) ptr @"_ZNKSt9_Any_data9_M_accessIPSt5_BindIFZN4pbrt5parseEPNS2_12ParserTargetESt10unique_ptrINS2_9TokenizerESt14default_deleteIS6_EEE3$_3NSt7__cxx1112basic_stringIcSt11char_traitsIcESaIcEEEEEEERKT_v"(ptr noundef nonnull align 8 dereferenceable(16) %0) #5
  %1 = load ptr, ptr %call, align 8
  ret ptr %1
}

; Function Attrs: mustprogress nounwind uwtable
define linkonce_odr dso_local noundef nonnull align 8 dereferenceable(8) ptr @_ZNSt9_Any_data9_M_accessIPKSt9type_infoEERT_v(ptr noundef nonnull align 8 dereferenceable(16) %this) #2 comdat align 2 {
entry:
  %this.addr = alloca ptr, align 8
  store ptr %this, ptr %this.addr, align 8
  %this1 = load ptr, ptr %this.addr, align 8
  %call = call noundef ptr @_ZNSt9_Any_data9_M_accessEv(ptr noundef nonnull align 8 dereferenceable(16) %this1) #5
  ret ptr %call
}

; Function Attrs: mustprogress uwtable
define internal noundef zeroext i1 @"_ZNSt17_Function_handlerIFivESt5_BindIFZN4pbrt5parseEPNS2_12ParserTargetESt10unique_ptrINS2_9TokenizerESt14default_deleteIS6_EEE3$_3NSt7__cxx1112basic_stringIcSt11char_traitsIcESaIcEEEEEE10_M_managerERSt9_Any_dataRKSK_St18_Manager_operation"(ptr noundef nonnull align 8 dereferenceable(16) %__dest, ptr noundef nonnull align 8 dereferenceable(16) %__source, i32 noundef %__op) #1 align 2 {
entry:
  %__dest.addr = alloca ptr, align 8
  %__source.addr = alloca ptr, align 8
  %__op.addr = alloca i32, align 4
  store ptr %__dest, ptr %__dest.addr, align 8
  store ptr %__source, ptr %__source.addr, align 8
  store i32 %__op, ptr %__op.addr, align 4
  %0 = load i32, ptr %__op.addr, align 4
  switch i32 %0, label %sw.default [
    i32 0, label %sw.bb
    i32 1, label %sw.bb1
  ]

sw.bb:                                            ; preds = %entry
  %1 = load ptr, ptr %__dest.addr, align 8
  %call = call noundef nonnull align 8 dereferenceable(8) ptr @_ZNSt9_Any_data9_M_accessIPKSt9type_infoEERT_v(ptr noundef nonnull align 8 dereferenceable(16) %1) #5
  store ptr @"_ZTISt5_BindIFZN4pbrt5parseEPNS0_12ParserTargetESt10unique_ptrINS0_9TokenizerESt14default_deleteIS4_EEE3$_3NSt7__cxx1112basic_stringIcSt11char_traitsIcESaIcEEEEE", ptr %call, align 8
  br label %sw.epilog

sw.bb1:                                           ; preds = %entry
  %2 = load ptr, ptr %__source.addr, align 8
  %call2 = call noundef ptr @"_ZNSt14_Function_base13_Base_managerISt5_BindIFZN4pbrt5parseEPNS2_12ParserTargetESt10unique_ptrINS2_9TokenizerESt14default_deleteIS6_EEE3$_3NSt7__cxx1112basic_stringIcSt11char_traitsIcESaIcEEEEEE14_M_get_pointerERKSt9_Any_data"(ptr noundef nonnull align 8 dereferenceable(16) %2) #5
  %3 = load ptr, ptr %__dest.addr, align 8
  %call3 = call noundef nonnull align 8 dereferenceable(8) ptr @"_ZNSt9_Any_data9_M_accessIPSt5_BindIFZN4pbrt5parseEPNS2_12ParserTargetESt10unique_ptrINS2_9TokenizerESt14default_deleteIS6_EEE3$_3NSt7__cxx1112basic_stringIcSt11char_traitsIcESaIcEEEEEEERT_v"(ptr noundef nonnull align 8 dereferenceable(16) %3) #5
  store ptr %call2, ptr %call3, align 8
  br label %sw.epilog

sw.default:                                       ; preds = %entry
  %4 = load ptr, ptr %__dest.addr, align 8
  %5 = load ptr, ptr %__source.addr, align 8
  %6 = load i32, ptr %__op.addr, align 4
  %call4 = call noundef zeroext i1 @"_ZNSt14_Function_base13_Base_managerISt5_BindIFZN4pbrt5parseEPNS2_12ParserTargetESt10unique_ptrINS2_9TokenizerESt14default_deleteIS6_EEE3$_3NSt7__cxx1112basic_stringIcSt11char_traitsIcESaIcEEEEEE10_M_managerERSt9_Any_dataRKSK_St18_Manager_operation"(ptr noundef nonnull align 8 dereferenceable(16) %4, ptr noundef nonnull align 8 dereferenceable(16) %5, i32 noundef %6)
  br label %sw.epilog

sw.epilog:                                        ; preds = %sw.default, %sw.bb1, %sw.bb
  ret i1 false
}