; Function Attrs: mustprogress uwtable
define internal noundef zeroext i1 @"_ZNSt17_Function_handlerIFivESt5_BindIFZN4pbrt5parseEPNS2_12ParserTargetESt10unique_ptrINS2_9TokenizerESt14default_deleteIS6_EEE3$_3NSt7__cxx1112basic_stringIcSt11char_traitsIcESaIcEEEEEE10_M_managerERSt9_Any_dataRKSK_St18_Manager_operation"(ptr nocapture noundef nonnull align 8 dereferenceable(16) %__dest, ptr nocapture noundef nonnull readonly align 8 dereferenceable(16) %__source, i32 noundef %__op) #3 align 2 personality ptr @__gxx_personality_v0 {
entry:
  switch i32 %__op, label %sw.epilog [
    i32 0, label %sw.bb
    i32 1, label %sw.bb1
    i32 3, label %sw.bb6.i
    i32 2, label %sw.bb4.i
  ]

sw.bb:                                            ; preds = %entry
  store ptr @"_ZTISt5_BindIFZN4pbrt5parseEPNS0_12ParserTargetESt10unique_ptrINS0_9TokenizerESt14default_deleteIS4_EEE3$_3NSt7__cxx1112basic_stringIcSt11char_traitsIcESaIcEEEEE", ptr %__dest, align 8
  br label %sw.epilog

sw.bb1:                                           ; preds = %entry
  %__source.val = load ptr, ptr %__source, align 8
  store ptr %__source.val, ptr %__dest, align 8
  br label %sw.epilog

sw.bb4.i:                                         ; preds = %entry
  %__source.val5 = load ptr, ptr %__source, align 8
  %call.i.i.i = tail call noalias noundef nonnull dereferenceable(48) ptr @_Znwm(i64 noundef 48) #34
  tail call void @llvm.memcpy.p0.p0.i64(ptr noundef nonnull align 8 dereferenceable(16) %call.i.i.i, ptr noundef nonnull align 8 dereferenceable(16) %__source.val5, i64 16, i1 false)
  %_M_bound_args.i.i.i.i = getelementptr inbounds i8, ptr %call.i.i.i, i64 16
  %_M_bound_args3.i.i.i.i = getelementptr inbounds i8, ptr %__source.val5, i64 16
  invoke void @_ZNSt7__cxx1112basic_stringIcSt11char_traitsIcESaIcEEC1ERKS4_(ptr noundef nonnull align 8 dereferenceable(32) %_M_bound_args.i.i.i.i, ptr noundef nonnull align 8 dereferenceable(32) %_M_bound_args3.i.i.i.i)
          to label %"_ZNSt14_Function_base13_Base_managerISt5_BindIFZN4pbrt5parseEPNS2_12ParserTargetESt10unique_ptrINS2_9TokenizerESt14default_deleteIS6_EEE3$_3NSt7__cxx1112basic_stringIcSt11char_traitsIcESaIcEEEEEE15_M_init_functorIRKSI_EEvRSt9_Any_dataOT_.exit.i" unwind label %lpad.i.i.i

lpad.i.i.i:                                       ; preds = %sw.bb4.i
  %0 = landingpad { ptr, i32 }
          cleanup
  tail call void @_ZdlPv(ptr noundef nonnull %call.i.i.i) #35
  resume { ptr, i32 } %0

"_ZNSt14_Function_base13_Base_managerISt5_BindIFZN4pbrt5parseEPNS2_12ParserTargetESt10unique_ptrINS2_9TokenizerESt14default_deleteIS6_EEE3$_3NSt7__cxx1112basic_stringIcSt11char_traitsIcESaIcEEEEEE15_M_init_functorIRKSI_EEvRSt9_Any_dataOT_.exit.i": ; preds = %sw.bb4.i
  store ptr %call.i.i.i, ptr %__dest, align 8
  br label %sw.epilog

sw.bb6.i:                                         ; preds = %entry
  %__dest.val.i = load ptr, ptr %__dest, align 8
  %isnull.i.i = icmp eq ptr %__dest.val.i, null
  br i1 %isnull.i.i, label %sw.epilog, label %delete.notnull.i.i

delete.notnull.i.i:                               ; preds = %sw.bb6.i
  %_M_bound_args.i.i.i = getelementptr inbounds i8, ptr %__dest.val.i, i64 16
  tail call void @_ZNSt7__cxx1112basic_stringIcSt11char_traitsIcESaIcEED1Ev(ptr noundef nonnull align 8 dereferenceable(32) %_M_bound_args.i.i.i) #32
  tail call void @_ZdlPv(ptr noundef nonnull %__dest.val.i) #35
  br label %sw.epilog

sw.epilog:                                        ; preds = %entry, %delete.notnull.i.i, %sw.bb6.i, %"_ZNSt14_Function_base13_Base_managerISt5_BindIFZN4pbrt5parseEPNS2_12ParserTargetESt10unique_ptrINS2_9TokenizerESt14default_deleteIS6_EEE3$_3NSt7__cxx1112basic_stringIcSt11char_traitsIcESaIcEEEEEE15_M_init_functorIRKSI_EEvRSt9_Any_dataOT_.exit.i", %sw.bb1, %sw.bb
  ret i1 false
}